; ModuleID = 'source-C-CXX/36/354.cpp'
source_filename = "source-C-CXX/36/354.cpp"
target datalayout = "e-m:e-p270:32:32-p271:32:32-p272:64:64-i64:64-f80:128-n8:16:32:64-S128"
target triple = "x86_64-pc-linux-gnu"

%"class.std::ios_base::Init" = type { i8 }
%"class.std::basic_istream" = type { i32 (...)**, i64, %"class.std::basic_ios" }
%"class.std::basic_ios" = type { %"class.std::ios_base", %"class.std::basic_ostream"*, i8, i8, %"class.std::basic_streambuf"*, %"class.std::ctype"*, %"class.std::num_put"*, %"class.std::num_get"* }
%"class.std::ios_base" = type { i32 (...)**, i64, i64, i32, i32, i32, %"struct.std::ios_base::_Callback_list"*, %"struct.std::ios_base::_Words", [8 x %"struct.std::ios_base::_Words"], i32, %"struct.std::ios_base::_Words"*, %"class.std::locale" }
%"struct.std::ios_base::_Callback_list" = type { %"struct.std::ios_base::_Callback_list"*, void (i32, %"class.std::ios_base"*, i32)*, i32, i32 }
%"struct.std::ios_base::_Words" = type { i8*, i64 }
%"class.std::locale" = type { %"class.std::locale::_Impl"* }
%"class.std::locale::_Impl" = type { i32, %"class.std::locale::facet"**, i64, %"class.std::locale::facet"**, i8** }
%"class.std::locale::facet" = type <{ i32 (...)**, i32, [4 x i8] }>
%"class.std::basic_ostream" = type { i32 (...)**, %"class.std::basic_ios" }
%"class.std::basic_streambuf" = type { i32 (...)**, i8*, i8*, i8*, i8*, i8*, i8*, %"class.std::locale" }
%"class.std::ctype" = type <{ %"class.std::locale::facet.base", [4 x i8], %struct.__locale_struct*, i8, [7 x i8], i32*, i32*, i16*, i8, [256 x i8], [256 x i8], i8, [6 x i8] }>
%"class.std::locale::facet.base" = type <{ i32 (...)**, i32 }>
%struct.__locale_struct = type { [13 x %struct.__locale_data*], i16*, i32*, i32*, [13 x i8*] }
%struct.__locale_data = type opaque
%"class.std::num_put" = type { %"class.std::locale::facet.base", [4 x i8] }
%"class.std::num_get" = type { %"class.std::locale::facet.base", [4 x i8] }

@_ZStL8__ioinit = internal global %"class.std::ios_base::Init" zeroinitializer, align 1
@__dso_handle = external hidden global i8
@_ZSt3cin = external global %"class.std::basic_istream", align 8
@_ZSt4cout = external global %"class.std::basic_ostream", align 8
@.str = private unnamed_addr constant [3 x i8] c"no\00", align 1
@llvm.global_ctors = appending global [1 x { i32, void ()*, i8* }] [{ i32, void ()*, i8* } { i32 65535, void ()* @_GLOBAL__sub_I_354.cpp, i8* null }]

declare void @_ZNSt8ios_base4InitC1Ev(%"class.std::ios_base::Init"* nonnull align 1 dereferenceable(1)) unnamed_addr #0

; Function Attrs: nounwind
declare void @_ZNSt8ios_base4InitD1Ev(%"class.std::ios_base::Init"* nonnull align 1 dereferenceable(1)) unnamed_addr #1

; Function Attrs: nofree nounwind
declare i32 @__cxa_atexit(void (i8*)*, i8*, i8*) local_unnamed_addr #2

; Function Attrs: mustprogress norecurse sspstrong uwtable
define dso_local i32 @main() local_unnamed_addr #3 {
  %1 = alloca i8, align 1
  %2 = alloca [100 x [10000 x i8]], align 16
  %3 = alloca i32, align 4
  %4 = getelementptr inbounds [100 x [10000 x i8]], [100 x [10000 x i8]]* %2, i64 0, i64 0, i64 0
  call void @llvm.lifetime.start.p0i8(i64 1000000, i8* nonnull %4) #7
  %5 = bitcast i32* %3 to i8*
  call void @llvm.lifetime.start.p0i8(i64 4, i8* nonnull %5) #7
  %6 = call nonnull align 8 dereferenceable(16) %"class.std::basic_istream"* @_ZNSirsERi(%"class.std::basic_istream"* nonnull align 8 dereferenceable(16) @_ZSt3cin, i32* nonnull align 4 dereferenceable(4) %3)
  %7 = call i32 @_ZNSi3getEv(%"class.std::basic_istream"* nonnull align 8 dereferenceable(16) @_ZSt3cin)
  %8 = load i32, i32* %3, align 4, !tbaa !5
  %9 = icmp sgt i32 %8, 0
  br i1 %9, label %12, label %117

10:                                               ; preds = %12
  %11 = icmp sgt i32 %16, 0
  br i1 %11, label %19, label %117

12:                                               ; preds = %0, %12
  %13 = phi i64 [ %15, %12 ], [ 0, %0 ]
  %14 = getelementptr inbounds [100 x [10000 x i8]], [100 x [10000 x i8]]* %2, i64 0, i64 %13, i64 0
  call void @_ZSt17__istream_extractRSiPcl(%"class.std::basic_istream"* nonnull align 8 dereferenceable(16) @_ZSt3cin, i8* nonnull %14, i64 9223372036854775807)
  %15 = add nuw nsw i64 %13, 1
  %16 = load i32, i32* %3, align 4, !tbaa !5
  %17 = sext i32 %16 to i64
  %18 = icmp slt i64 %15, %17
  br i1 %18, label %12, label %10, !llvm.loop !9

19:                                               ; preds = %10, %111
  %20 = phi i64 [ %113, %111 ], [ 0, %10 ]
  %21 = phi i32 [ %112, %111 ], [ undef, %10 ]
  %22 = getelementptr inbounds [100 x [10000 x i8]], [100 x [10000 x i8]]* %2, i64 0, i64 %20, i64 0
  %23 = load i8, i8* %22, align 16, !tbaa !11
  %24 = icmp eq i8 %23, 0
  br i1 %24, label %76, label %29

25:                                               ; preds = %43
  %26 = getelementptr inbounds [100 x [10000 x i8]], [100 x [10000 x i8]]* %2, i64 0, i64 %20, i64 %45
  %27 = load i8, i8* %26, align 1, !tbaa !11
  %28 = icmp eq i8 %27, 0
  br i1 %28, label %76, label %29, !llvm.loop !12

29:                                               ; preds = %19, %25
  %30 = phi i64 [ %45, %25 ], [ 0, %19 ]
  %31 = phi i8 [ %27, %25 ], [ %23, %19 ]
  br label %32

32:                                               ; preds = %29, %32
  %33 = phi i64 [ 0, %29 ], [ %39, %32 ]
  %34 = phi i8 [ %23, %29 ], [ %41, %32 ]
  %35 = phi i32 [ 0, %29 ], [ %38, %32 ]
  %36 = icmp eq i8 %31, %34
  %37 = zext i1 %36 to i32
  %38 = add nuw nsw i32 %35, %37
  %39 = add nuw nsw i64 %33, 1
  %40 = getelementptr inbounds [100 x [10000 x i8]], [100 x [10000 x i8]]* %2, i64 0, i64 %20, i64 %39
  %41 = load i8, i8* %40, align 1, !tbaa !11
  %42 = icmp eq i8 %41, 0
  br i1 %42, label %43, label %32, !llvm.loop !13

43:                                               ; preds = %32
  %44 = icmp eq i32 %38, 1
  %45 = add nuw i64 %30, 1
  br i1 %44, label %46, label %25

46:                                               ; preds = %43
  call void @llvm.lifetime.start.p0i8(i64 1, i8* nonnull %1)
  store i8 %31, i8* %1, align 1, !tbaa !11
  %47 = call nonnull align 8 dereferenceable(8) %"class.std::basic_ostream"* @_ZSt16__ostream_insertIcSt11char_traitsIcEERSt13basic_ostreamIT_T0_ES6_PKS3_l(%"class.std::basic_ostream"* nonnull align 8 dereferenceable(8) @_ZSt4cout, i8* nonnull %1, i64 1)
  call void @llvm.lifetime.end.p0i8(i64 1, i8* nonnull %1)
  %48 = bitcast %"class.std::basic_ostream"* %47 to i8**
  %49 = load i8*, i8** %48, align 8, !tbaa !14
  %50 = getelementptr i8, i8* %49, i64 -24
  %51 = bitcast i8* %50 to i64*
  %52 = load i64, i64* %51, align 8
  %53 = bitcast %"class.std::basic_ostream"* %47 to i8*
  %54 = add nsw i64 %52, 240
  %55 = getelementptr inbounds i8, i8* %53, i64 %54
  %56 = bitcast i8* %55 to %"class.std::ctype"**
  %57 = load %"class.std::ctype"*, %"class.std::ctype"** %56, align 8, !tbaa !16
  %58 = icmp eq %"class.std::ctype"* %57, null
  br i1 %58, label %59, label %60

59:                                               ; preds = %46
  call void @_ZSt16__throw_bad_castv() #8
  unreachable

60:                                               ; preds = %46
  %61 = getelementptr inbounds %"class.std::ctype", %"class.std::ctype"* %57, i64 0, i32 8
  %62 = load i8, i8* %61, align 8, !tbaa !20
  %63 = icmp eq i8 %62, 0
  br i1 %63, label %67, label %64

64:                                               ; preds = %60
  %65 = getelementptr inbounds %"class.std::ctype", %"class.std::ctype"* %57, i64 0, i32 9, i64 10
  %66 = load i8, i8* %65, align 1, !tbaa !11
  br label %73

67:                                               ; preds = %60
  call void @_ZNKSt5ctypeIcE13_M_widen_initEv(%"class.std::ctype"* nonnull align 8 dereferenceable(570) %57)
  %68 = bitcast %"class.std::ctype"* %57 to i8 (%"class.std::ctype"*, i8)***
  %69 = load i8 (%"class.std::ctype"*, i8)**, i8 (%"class.std::ctype"*, i8)*** %68, align 8, !tbaa !14
  %70 = getelementptr inbounds i8 (%"class.std::ctype"*, i8)*, i8 (%"class.std::ctype"*, i8)** %69, i64 6
  %71 = load i8 (%"class.std::ctype"*, i8)*, i8 (%"class.std::ctype"*, i8)** %70, align 8
  %72 = call signext i8 %71(%"class.std::ctype"* nonnull align 8 dereferenceable(570) %57, i8 signext 10)
  br label %73

73:                                               ; preds = %67, %64
  %74 = phi i8 [ %66, %64 ], [ %72, %67 ]
  %75 = call nonnull align 8 dereferenceable(8) %"class.std::basic_ostream"* @_ZNSo3putEc(%"class.std::basic_ostream"* nonnull align 8 dereferenceable(8) %47, i8 signext %74)
  br label %107

76:                                               ; preds = %25, %19
  %77 = phi i32 [ %21, %19 ], [ %38, %25 ]
  %78 = icmp sgt i32 %77, 1
  br i1 %78, label %79, label %111

79:                                               ; preds = %76
  %80 = call nonnull align 8 dereferenceable(8) %"class.std::basic_ostream"* @_ZSt16__ostream_insertIcSt11char_traitsIcEERSt13basic_ostreamIT_T0_ES6_PKS3_l(%"class.std::basic_ostream"* nonnull align 8 dereferenceable(8) @_ZSt4cout, i8* nonnull getelementptr inbounds ([3 x i8], [3 x i8]* @.str, i64 0, i64 0), i64 2)
  %81 = load i8*, i8** bitcast (%"class.std::basic_ostream"* @_ZSt4cout to i8**), align 8, !tbaa !14
  %82 = getelementptr i8, i8* %81, i64 -24
  %83 = bitcast i8* %82 to i64*
  %84 = load i64, i64* %83, align 8
  %85 = add nsw i64 %84, 240
  %86 = getelementptr inbounds i8, i8* bitcast (%"class.std::basic_ostream"* @_ZSt4cout to i8*), i64 %85
  %87 = bitcast i8* %86 to %"class.std::ctype"**
  %88 = load %"class.std::ctype"*, %"class.std::ctype"** %87, align 8, !tbaa !16
  %89 = icmp eq %"class.std::ctype"* %88, null
  br i1 %89, label %90, label %91

90:                                               ; preds = %79
  call void @_ZSt16__throw_bad_castv() #8
  unreachable

91:                                               ; preds = %79
  %92 = getelementptr inbounds %"class.std::ctype", %"class.std::ctype"* %88, i64 0, i32 8
  %93 = load i8, i8* %92, align 8, !tbaa !20
  %94 = icmp eq i8 %93, 0
  br i1 %94, label %98, label %95

95:                                               ; preds = %91
  %96 = getelementptr inbounds %"class.std::ctype", %"class.std::ctype"* %88, i64 0, i32 9, i64 10
  %97 = load i8, i8* %96, align 1, !tbaa !11
  br label %104

98:                                               ; preds = %91
  call void @_ZNKSt5ctypeIcE13_M_widen_initEv(%"class.std::ctype"* nonnull align 8 dereferenceable(570) %88)
  %99 = bitcast %"class.std::ctype"* %88 to i8 (%"class.std::ctype"*, i8)***
  %100 = load i8 (%"class.std::ctype"*, i8)**, i8 (%"class.std::ctype"*, i8)*** %99, align 8, !tbaa !14
  %101 = getelementptr inbounds i8 (%"class.std::ctype"*, i8)*, i8 (%"class.std::ctype"*, i8)** %100, i64 6
  %102 = load i8 (%"class.std::ctype"*, i8)*, i8 (%"class.std::ctype"*, i8)** %101, align 8
  %103 = call signext i8 %102(%"class.std::ctype"* nonnull align 8 dereferenceable(570) %88, i8 signext 10)
  br label %104

104:                                              ; preds = %95, %98
  %105 = phi i8 [ %97, %95 ], [ %103, %98 ]
  %106 = call nonnull align 8 dereferenceable(8) %"class.std::basic_ostream"* @_ZNSo3putEc(%"class.std::basic_ostream"* nonnull align 8 dereferenceable(8) @_ZSt4cout, i8 signext %105)
  br label %107

107:                                              ; preds = %104, %73
  %108 = phi %"class.std::basic_ostream"* [ %75, %73 ], [ %106, %104 ]
  %109 = phi i32 [ 1, %73 ], [ %77, %104 ]
  %110 = call nonnull align 8 dereferenceable(8) %"class.std::basic_ostream"* @_ZNSo5flushEv(%"class.std::basic_ostream"* nonnull align 8 dereferenceable(8) %108)
  br label %111

111:                                              ; preds = %107, %76
  %112 = phi i32 [ %77, %76 ], [ %109, %107 ]
  %113 = add nuw nsw i64 %20, 1
  %114 = load i32, i32* %3, align 4, !tbaa !5
  %115 = sext i32 %114 to i64
  %116 = icmp slt i64 %113, %115
  br i1 %116, label %19, label %117, !llvm.loop !22

117:                                              ; preds = %111, %0, %10
  call void @llvm.lifetime.end.p0i8(i64 4, i8* nonnull %5) #7
  call void @llvm.lifetime.end.p0i8(i64 1000000, i8* nonnull %4) #7
  ret i32 0
}

; Function Attrs: argmemonly mustprogress nofree nosync nounwind willreturn
declare void @llvm.lifetime.start.p0i8(i64 immarg, i8* nocapture) #4

declare nonnull align 8 dereferenceable(16) %"class.std::basic_istream"* @_ZNSirsERi(%"class.std::basic_istream"* nonnull align 8 dereferenceable(16), i32* nonnull align 4 dereferenceable(4)) local_unnamed_addr #0

declare i32 @_ZNSi3getEv(%"class.std::basic_istream"* nonnull align 8 dereferenceable(16)) local_unnamed_addr #0

; Function Attrs: argmemonly mustprogress nofree nosync nounwind willreturn
declare void @llvm.lifetime.end.p0i8(i64 immarg, i8* nocapture) #4

declare void @_ZSt17__istream_extractRSiPcl(%"class.std::basic_istream"* nonnull align 8 dereferenceable(16), i8*, i64) local_unnamed_addr #0

declare nonnull align 8 dereferenceable(8) %"class.std::basic_ostream"* @_ZSt16__ostream_insertIcSt11char_traitsIcEERSt13basic_ostreamIT_T0_ES6_PKS3_l(%"class.std::basic_ostream"* nonnull align 8 dereferenceable(8), i8*, i64) local_unnamed_addr #0

declare nonnull align 8 dereferenceable(8) %"class.std::basic_ostream"* @_ZNSo3putEc(%"class.std::basic_ostream"* nonnull align 8 dereferenceable(8), i8 signext) local_unnamed_addr #0

declare nonnull align 8 dereferenceable(8) %"class.std::basic_ostream"* @_ZNSo5flushEv(%"class.std::basic_ostream"* nonnull align 8 dereferenceable(8)) local_unnamed_addr #0

; Function Attrs: noreturn
declare void @_ZSt16__throw_bad_castv() local_unnamed_addr #5

declare void @_ZNKSt5ctypeIcE13_M_widen_initEv(%"class.std::ctype"* nonnull align 8 dereferenceable(570)) local_unnamed_addr #0

; Function Attrs: sspstrong uwtable
define internal void @_GLOBAL__sub_I_354.cpp() #6 section ".text.startup" {
  tail call void @_ZNSt8ios_base4InitC1Ev(%"class.std::ios_base::Init"* nonnull align 1 dereferenceable(1) @_ZStL8__ioinit)
  %1 = tail call i32 @__cxa_atexit(void (i8*)* bitcast (void (%"class.std::ios_base::Init"*)* @_ZNSt8ios_base4InitD1Ev to void (i8*)*), i8* getelementptr inbounds (%"class.std::ios_base::Init", %"class.std::ios_base::Init"* @_ZStL8__ioinit, i64 0, i32 0), i8* nonnull @__dso_handle) #7
  ret void
}


!llvm.module.flags = !{!0, !1, !2, !3}
!llvm.ident = !{!4}

!0 = !{i32 1, !"wchar_size", i32 4}
!1 = !{i32 7, !"PIC Level", i32 2}
!2 = !{i32 7, !"PIE Level", i32 2}
!3 = !{i32 7, !"uwtable", i32 1}
!4 = !{!"clang version 13.0.0"}
!5 = !{!6, !6, i64 0}
!6 = !{!"int", !7, i64 0}
!7 = !{!"omnipotent char", !8, i64 0}
!8 = !{!"Simple C++ TBAA"}
!9 = distinct !{!9, !10}
!10 = !{!"llvm.loop.mustprogress"}
!11 = !{!7, !7, i64 0}
!12 = distinct !{!12, !10}
!13 = distinct !{!13, !10}
!14 = !{!15, !15, i64 0}
!15 = !{!"vtable pointer", !8, i64 0}
!16 = !{!17, !18, i64 240}
!17 = !{!"_ZTSSt9basic_iosIcSt11char_traitsIcEE", !18, i64 216, !7, i64 224, !19, i64 225, !18, i64 232, !18, i64 240, !18, i64 248, !18, i64 256}
!18 = !{!"any pointer", !7, i64 0}
!19 = !{!"bool", !7, i64 0}
!20 = !{!21, !7, i64 56}
!21 = !{!"_ZTSSt5ctypeIcE", !18, i64 16, !19, i64 24, !18, i64 32, !18, i64 40, !18, i64 48, !7, i64 56, !7, i64 57, !7, i64 313, !7, i64 569}
!22 = distinct !{!22, !10}
